target datalayout = "e-m:e-p270:32:32-p271:32:32-p272:64:64-i64:64-i128:128-f80:128-n8:16:32:64-S128"
target triple = "x86_64-pc-linux-gnu"

%struct.AVProbeData = type { ptr, ptr, i32, ptr }

@.str.1 = private unnamed_addr constant [9 x i8] c"RedSpark\00", align 1

; Function Attrs: inlinehint nounwind willreturn memory(none) uwtable
define internal i64 @av_bswap64(i64 noundef %0) #3 {
  %2 = alloca i64, align 8
  store i64 %0, ptr %2, align 8, !tbaa !64
  %3 = load i64, ptr %2, align 8, !tbaa !64
  %4 = trunc i64 %3 to i32
  %5 = call i32 @av_bswap32(i32 noundef %4) #9
  %6 = zext i32 %5 to i64
  %7 = shl i64 %6, 32
  %8 = load i64, ptr %2, align 8, !tbaa !64
  %9 = lshr i64 %8, 32
  %10 = trunc i64 %9 to i32
  %11 = call i32 @av_bswap32(i32 noundef %10) #9
  %12 = zext i32 %11 to i64
  %13 = or i64 %7, %12
  ret i64 %13
}

; Function Attrs: alwaysinline nounwind willreturn memory(none) uwtable
define internal i32 @av_bswap32(i32 noundef %0) #2 {
  %2 = alloca i32, align 4
  store i32 %0, ptr %2, align 4, !tbaa !14
  %3 = load i32, ptr %2, align 4, !tbaa !14
  %4 = shl i32 %3, 8
  %5 = and i32 %4, 65280
  %6 = load i32, ptr %2, align 4, !tbaa !14
  %7 = lshr i32 %6, 8
  %8 = and i32 %7, 255
  %9 = or i32 %5, %8
  %10 = shl i32 %9, 16
  %11 = load i32, ptr %2, align 4, !tbaa !14
  %12 = lshr i32 %11, 16
  %13 = shl i32 %12, 8
  %14 = and i32 %13, 65280
  %15 = load i32, ptr %2, align 4, !tbaa !14
  %16 = lshr i32 %15, 16
  %17 = lshr i32 %16, 8
  %18 = and i32 %17, 255
  %19 = or i32 %14, %18
  %20 = or i32 %10, %19
  ret i32 %20
}

; Function Attrs: nounwind uwtable
define internal i32 @redspark_probe(ptr noundef %0) #0 {
  %2 = alloca i32, align 4
  %3 = alloca ptr, align 8
  %4 = alloca i32, align 4
  %5 = alloca i32, align 4
  %6 = alloca [8 x i8], align 1
  %7 = alloca i32, align 4
  store ptr %0, ptr %3, align 8, !tbaa !4
  call void @llvm.lifetime.start.p0(i64 4, ptr %4) #8
  call void @llvm.lifetime.start.p0(i64 4, ptr %5) #8
  call void @llvm.lifetime.start.p0(i64 8, ptr %6) #8
  %8 = load ptr, ptr %3, align 8, !tbaa !4
  %9 = getelementptr inbounds nuw %struct.AVProbeData, ptr %8, i32 0, i32 1
  %10 = load ptr, ptr %9, align 8, !tbaa !9
  %11 = load i32, ptr %10, align 1, !tbaa !13
  %12 = call i32 @av_bswap32(i32 noundef %11) #9
  store i32 %12, ptr %5, align 4, !tbaa !14
  %13 = load i32, ptr %5, align 4, !tbaa !14
  %14 = xor i32 %13, 1382376531
  store i32 %14, ptr %4, align 4, !tbaa !14
  %15 = load i32, ptr %4, align 4, !tbaa !14
  %16 = load i32, ptr %5, align 4, !tbaa !14
  %17 = xor i32 %16, %15
  store i32 %17, ptr %5, align 4, !tbaa !14
  %18 = load i32, ptr %5, align 4, !tbaa !14
  %19 = call i32 @av_bswap32(i32 noundef %18) #9
  %20 = getelementptr inbounds [8 x i8], ptr %6, i64 0, i64 0
  store i32 %19, ptr %20, align 1, !tbaa !13
  %21 = load i32, ptr %4, align 4, !tbaa !14
  %22 = shl i32 %21, 11
  %23 = load i32, ptr %4, align 4, !tbaa !14
  %24 = lshr i32 %23, 21
  %25 = or i32 %22, %24
  store i32 %25, ptr %4, align 4, !tbaa !14
  %26 = load i32, ptr %4, align 4, !tbaa !14
  %27 = shl i32 %26, 3
  %28 = load i32, ptr %4, align 4, !tbaa !14
  %29 = lshr i32 %28, 29
  %30 = or i32 %27, %29
  %31 = load i32, ptr %4, align 4, !tbaa !14
  %32 = add i32 %31, %30
  store i32 %32, ptr %4, align 4, !tbaa !14
  %33 = load ptr, ptr %3, align 8, !tbaa !4
  %34 = getelementptr inbounds nuw %struct.AVProbeData, ptr %33, i32 0, i32 1
  %35 = load ptr, ptr %34, align 8, !tbaa !9
  %36 = getelementptr inbounds i8, ptr %35, i64 4
  %37 = load i32, ptr %36, align 1, !tbaa !13
  %38 = call i32 @av_bswap32(i32 noundef %37) #9
  %39 = load i32, ptr %4, align 4, !tbaa !14
  %40 = xor i32 %38, %39
  store i32 %40, ptr %5, align 4, !tbaa !14
  %41 = load i32, ptr %5, align 4, !tbaa !14
  %42 = call i32 @av_bswap32(i32 noundef %41) #9
  %43 = getelementptr inbounds [8 x i8], ptr %6, i64 0, i64 0
  %44 = getelementptr inbounds i8, ptr %43, i64 4
  store i32 %42, ptr %44, align 1, !tbaa !13
  %45 = getelementptr inbounds [8 x i8], ptr %6, i64 0, i64 0
  %46 = load i64, ptr %45, align 1, !tbaa !13
  %47 = call i64 @av_bswap64(i64 noundef %46) #9
  %48 = load i64, ptr @.str.1, align 1, !tbaa !13
  %49 = call i64 @av_bswap64(i64 noundef %48) #9
  %50 = icmp eq i64 %47, %49
  br i1 %50, label %51, label %52

51:                                               ; preds = %1
  store i32 100, ptr %2, align 4
  store i32 1, ptr %7, align 4
  br label %53

52:                                               ; preds = %1
  store i32 0, ptr %2, align 4
  store i32 1, ptr %7, align 4
  br label %53

53:                                               ; preds = %52, %51
  call void @llvm.lifetime.end.p0(i64 8, ptr %6) #8
  call void @llvm.lifetime.end.p0(i64 4, ptr %5) #8
  call void @llvm.lifetime.end.p0(i64 4, ptr %4) #8
  %54 = load i32, ptr %2, align 4
  ret i32 %54
}