; Function Attrs: mustprogress nofree norecurse nosync nounwind willreturn memory(read, inaccessiblemem: none) uwtable
define internal range(i32 0, 101) i32 @redspark_probe(ptr noundef readonly captures(none) %0) #0 {
  %2 = getelementptr inbounds nuw i8, ptr %0, i64 8
  %3 = load ptr, ptr %2, align 8, !tbaa !4
  %4 = load i32, ptr %3, align 1, !tbaa !11
  %5 = xor i32 %4, 1399088466
  %6 = tail call i32 @llvm.bswap.i32(i32 %5)
  %7 = tail call i32 @llvm.fshl.i32(i32 %6, i32 %6, i32 11)
  %8 = tail call i32 @llvm.fshl.i32(i32 %7, i32 %7, i32 3)
  %9 = add i32 %8, %7
  %10 = getelementptr inbounds nuw i8, ptr %3, i64 4
  %11 = load i32, ptr %10, align 1, !tbaa !11
  %12 = tail call i32 @llvm.bswap.i32(i32 %9)
  %13 = xor i32 %12, %11
  %14 = icmp eq i32 %13, 1802658160
  %. = select i1 %14, i32 100, i32 0
  ret i32 %.
}